target datalayout = "e-m:e-p270:32:32-p271:32:32-p272:64:64-i64:64-i128:128-f80:128-n8:16:32:64-S128"
target triple = "x86_64-pc-linux-gnu"

@zueci_cp1252_s = internal constant [6 x i16] [i16 -1, i16 -1, i16 -1, i16 -1, i16 -1, i16 -1], align 2
@zueci_cp1252_sb_u = internal constant [32 x i8] c"\19\FF\0E\07\11\15\12\13\08\16\02\17\00\FF\05\FF\FF\0C\0D\0F\10\14\0A\0B\09\1A\03\18\01\FF\06\04", align 16

; Function Attrs: nounwind uwtable
define internal i32 @zueci_cp125x_u(i8 noundef zeroext %0, i32 noundef %1, ptr noundef %2, ptr noundef %3, ptr noundef %4, i32 noundef %5, ptr noundef %6) #0 {
  %8 = alloca i32, align 4
  %9 = alloca i8, align 1
  %10 = alloca i32, align 4
  %11 = alloca ptr, align 8
  %12 = alloca ptr, align 8
  %13 = alloca ptr, align 8
  %14 = alloca i32, align 4
  %15 = alloca ptr, align 8
  %16 = alloca i32, align 4
  %17 = alloca i8, align 1
  store i8 %0, ptr %9, align 1
  store i32 %1, ptr %10, align 4
  store ptr %2, ptr %11, align 8
  store ptr %3, ptr %12, align 8
  store ptr %4, ptr %13, align 8
  store i32 %5, ptr %14, align 4
  store ptr %6, ptr %15, align 8
  %18 = load i8, ptr %9, align 1
  %19 = zext i8 %18 to i32
  %20 = icmp slt i32 %19, 128
  br i1 %20, label %21, label %25

21:                                               ; preds = %7
  %22 = load i8, ptr %9, align 1
  %23 = zext i8 %22 to i32
  %24 = load ptr, ptr %15, align 8
  store i32 %23, ptr %24, align 4
  store i32 1, ptr %8, align 4
  br label %85

25:                                               ; preds = %7
  %26 = load i8, ptr %9, align 1
  %27 = zext i8 %26 to i32
  %28 = icmp sge i32 %27, 160
  br i1 %28, label %29, label %53

29:                                               ; preds = %25
  %30 = load i8, ptr %9, align 1
  %31 = zext i8 %30 to i32
  %32 = sub nsw i32 %31, 160
  %33 = trunc i32 %32 to i8
  store i8 %33, ptr %17, align 1
  %34 = load ptr, ptr %11, align 8
  %35 = load i8, ptr %17, align 1
  %36 = zext i8 %35 to i32
  %37 = ashr i32 %36, 4
  %38 = sext i32 %37 to i64
  %39 = getelementptr inbounds i16, ptr %34, i64 %38
  %40 = load i16, ptr %39, align 2
  %41 = zext i16 %40 to i32
  %42 = load i8, ptr %17, align 1
  %43 = zext i8 %42 to i32
  %44 = and i32 %43, 15
  %45 = shl i32 1, %44
  %46 = and i32 %41, %45
  %47 = icmp ne i32 %46, 0
  br i1 %47, label %48, label %52

48:                                               ; preds = %29
  %49 = load i8, ptr %9, align 1
  %50 = zext i8 %49 to i32
  %51 = load ptr, ptr %15, align 8
  store i32 %50, ptr %51, align 4
  store i32 1, ptr %8, align 4
  br label %85

52:                                               ; preds = %29
  br label %53

53:                                               ; preds = %52, %25
  %54 = load i8, ptr %9, align 1
  %55 = zext i8 %54 to i32
  %56 = load i32, ptr %14, align 4
  %57 = icmp slt i32 %55, %56
  br i1 %57, label %58, label %76

58:                                               ; preds = %53
  %59 = load ptr, ptr %13, align 8
  %60 = load i8, ptr %9, align 1
  %61 = zext i8 %60 to i32
  %62 = sub nsw i32 %61, 128
  %63 = sext i32 %62 to i64
  %64 = getelementptr inbounds i8, ptr %59, i64 %63
  %65 = load i8, ptr %64, align 1
  %66 = sext i8 %65 to i32
  store i32 %66, ptr %16, align 4
  %67 = icmp ne i32 %66, -1
  br i1 %67, label %68, label %76

68:                                               ; preds = %58
  %69 = load ptr, ptr %12, align 8
  %70 = load i32, ptr %16, align 4
  %71 = sext i32 %70 to i64
  %72 = getelementptr inbounds i16, ptr %69, i64 %71
  %73 = load i16, ptr %72, align 2
  %74 = zext i16 %73 to i32
  %75 = load ptr, ptr %15, align 8
  store i32 %74, ptr %75, align 4
  store i32 1, ptr %8, align 4
  br label %85

76:                                               ; preds = %58, %53
  %77 = load i32, ptr %10, align 4
  %78 = and i32 %77, 1
  %79 = icmp ne i32 %78, 0
  br i1 %79, label %80, label %84

80:                                               ; preds = %76
  %81 = load i8, ptr %9, align 1
  %82 = zext i8 %81 to i32
  %83 = load ptr, ptr %15, align 8
  store i32 %82, ptr %83, align 4
  store i32 1, ptr %8, align 4
  br label %85

84:                                               ; preds = %76
  store i32 0, ptr %8, align 4
  br label %85

85:                                               ; preds = %84, %80, %68, %48, %21
  %86 = load i32, ptr %8, align 4
  ret i32 %86
}

; Function Attrs: nounwind uwtable
define internal i32 @zueci_cp1252_u(ptr noundef %0, i32 noundef %1, i32 noundef %2, ptr noundef %3) #0 {
  %5 = alloca ptr, align 8
  %6 = alloca i32, align 4
  %7 = alloca i32, align 4
  %8 = alloca ptr, align 8
  store ptr %0, ptr %5, align 8
  store i32 %1, ptr %6, align 4
  store i32 %2, ptr %7, align 4
  store ptr %3, ptr %8, align 8
  %9 = load ptr, ptr %5, align 8
  %10 = load i8, ptr %9, align 1
  %11 = load i32, ptr %7, align 4
  %12 = load ptr, ptr %8, align 8
  %13 = call i32 @zueci_cp125x_u(i8 noundef zeroext %10, i32 noundef %11, ptr noundef @zueci_cp1252_s, ptr noundef @zueci_cp1252_u_u, ptr noundef @zueci_cp1252_sb_u, i32 noundef 160, ptr noundef %12)
  ret i32 %13
}