; Function Attrs: mustprogress nofree norecurse nosync nounwind willreturn memory(argmem: readwrite) uwtable
define internal noundef i32 @zueci_cp1252_u(ptr nocapture noundef readonly %0, i32 %1, i32 noundef %2, ptr nocapture noundef writeonly %3) #6 {
  %5 = load i8, ptr %0, align 1
  %6 = zext i8 %5 to i32
  %or.cond = icmp sgt i8 %5, -97
  br i1 %or.cond, label %.sink.split.i, label %7

7:                                                ; preds = %4
  %8 = zext i8 %5 to i64
  %9 = getelementptr i8, ptr @zueci_cp1252_sb_u, i64 %8
  %10 = getelementptr i8, ptr %9, i64 -128
  %11 = load i8, ptr %10, align 1
  %.not22.i = icmp eq i8 %11, -1
  br i1 %.not22.i, label %17, label %12

12:                                               ; preds = %7
  %13 = sext i8 %11 to i64
  %14 = getelementptr inbounds i16, ptr @zueci_cp1252_u_u, i64 %13
  %15 = load i16, ptr %14, align 2
  %16 = zext i16 %15 to i32
  br label %.sink.split.i

17:                                               ; preds = %7
  %18 = and i32 %2, 1
  %.not23.i = icmp eq i32 %18, 0
  br i1 %.not23.i, label %zueci_cp125x_u.exit, label %.sink.split.i

.sink.split.i:                                    ; preds = %17, %12, %4
  %.sink.i = phi i32 [ %16, %12 ], [ %6, %4 ], [ %6, %17 ]
  store i32 %.sink.i, ptr %3, align 4
  br label %zueci_cp125x_u.exit

zueci_cp125x_u.exit:                              ; preds = %17, %.sink.split.i
  %.0.i = phi i32 [ 0, %17 ], [ 1, %.sink.split.i ]
  ret i32 %.0.i
}